target datalayout = "e-m:e-p270:32:32-p271:32:32-p272:64:64-i64:64-i128:128-f80:128-n8:16:32:64-S128"
target triple = "x86_64-pc-linux-gnu"

%struct.__va_list_tag = type { i32, i32, ptr, ptr }

@.str.151 = private unnamed_addr constant [2 x i8] c"1\00", align 1
@stdout = external global ptr, align 8
@_ZZN7testing8internalL13ColoredPrintfENS0_10GTestColorEPKczE13in_color_mode = internal global i8 0, align 1
@_ZGVZN7testing8internalL13ColoredPrintfENS0_10GTestColorEPKczE13in_color_mode = internal global i64 0, align 8
@.str.405 = private unnamed_addr constant [9 x i8] c"\1B[0;3%sm\00", align 1
@.str.406 = private unnamed_addr constant [4 x i8] c"\1B[m\00", align 1
@.str.407 = private unnamed_addr constant [2 x i8] c"2\00", align 1
@.str.408 = private unnamed_addr constant [2 x i8] c"3\00", align 1

; Function Attrs: mustprogress nounwind uwtable
define internal noundef ptr @_ZN7testing8internalL16GetAnsiColorCodeENS0_10GTestColorE(i32 noundef %0) #7 {
  %2 = alloca ptr, align 8
  %3 = alloca i32, align 4
  store i32 %0, ptr %3, align 4, !tbaa !424
  %4 = load i32, ptr %3, align 4, !tbaa !424
  switch i32 %4, label %8 [
    i32 1, label %5
    i32 2, label %6
    i32 3, label %7
  ]

5:                                                ; preds = %1
  store ptr @.str.151, ptr %2, align 8
  br label %9

6:                                                ; preds = %1
  store ptr @.str.407, ptr %2, align 8
  br label %9

7:                                                ; preds = %1
  store ptr @.str.408, ptr %2, align 8
  br label %9

8:                                                ; preds = %1
  store ptr null, ptr %2, align 8
  br label %9

9:                                                ; preds = %8, %7, %6, %5
  %10 = load ptr, ptr %2, align 8
  ret ptr %10
}

; Function Attrs: inlinehint mustprogress nounwind uwtable
define available_externally i32 @vprintf(ptr noalias noundef %0, ptr noundef %1) #4 {
  %3 = alloca ptr, align 8
  %4 = alloca ptr, align 8
  store ptr %0, ptr %3, align 8, !tbaa !15
  store ptr %1, ptr %4, align 8, !tbaa !961
  %5 = load ptr, ptr @stdout, align 8, !tbaa !25
  %6 = load ptr, ptr %3, align 8, !tbaa !15
  %7 = load ptr, ptr %4, align 8, !tbaa !961
  %8 = call i32 @vfprintf(ptr noundef %5, ptr noundef %6, ptr noundef %7) #3
  ret i32 %8
}

; Function Attrs: inlinehint mustprogress nounwind uwtable
define linkonce_odr hidden noundef i32 @_ZN7testing8internal5posix6IsATTYEi(i32 noundef %0) #4 comdat {
  %2 = alloca i32, align 4
  store i32 %0, ptr %2, align 4, !tbaa !8
  %3 = load i32, ptr %2, align 4, !tbaa !8
  %4 = call i32 @isatty(i32 noundef %3) #3
  ret i32 %4
}

; Function Attrs: inlinehint mustprogress nounwind uwtable
define linkonce_odr hidden noundef i32 @_ZN7testing8internal5posix6FileNoEP8_IO_FILE(ptr noundef %0) #4 comdat {
  %2 = alloca ptr, align 8
  store ptr %0, ptr %2, align 8, !tbaa !25
  %3 = load ptr, ptr %2, align 8, !tbaa !25
  %4 = call i32 @fileno(ptr noundef %3) #3
  ret i32 %4
}

; Function Attrs: mustprogress uwtable
define internal void @_ZN7testing8internalL13ColoredPrintfENS0_10GTestColorEPKcz(i32 noundef %0, ptr noundef %1, ...) #6 personality ptr @__gxx_personality_v0 {
  %3 = alloca i32, align 4
  %4 = alloca ptr, align 8
  %5 = alloca [1 x %struct.__va_list_tag], align 16
  %6 = alloca ptr, align 8
  %7 = alloca i32, align 4
  %8 = alloca i8, align 1
  %9 = alloca i32, align 4
  store i32 %0, ptr %3, align 4, !tbaa !424
  store ptr %1, ptr %4, align 8, !tbaa !15
  call void @llvm.lifetime.start.p0(i64 24, ptr %5) #3
  %10 = getelementptr inbounds [1 x %struct.__va_list_tag], ptr %5, i64 0, i64 0
  call void @llvm.va_start.p0(ptr %10)
  %11 = load atomic i8, ptr @_ZGVZN7testing8internalL13ColoredPrintfENS0_10GTestColorEPKczE13in_color_mode acquire, align 8
  %12 = icmp eq i8 %11, 0
  br i1 %12, label %13, label %27, !prof !54

13:                                               ; preds = %2
  %14 = call i32 @__cxa_guard_acquire(ptr @_ZGVZN7testing8internalL13ColoredPrintfENS0_10GTestColorEPKczE13in_color_mode) #3
  %15 = icmp ne i32 %14, 0
  br i1 %15, label %16, label %27

16:                                               ; preds = %13
  %17 = load ptr, ptr @stdout, align 8, !tbaa !25
  %18 = invoke noundef i32 @_ZN7testing8internal5posix6FileNoEP8_IO_FILE(ptr noundef %17)
          to label %19 unwind label %43

19:                                               ; preds = %16
  %20 = invoke noundef i32 @_ZN7testing8internal5posix6IsATTYEi(i32 noundef %18)
          to label %21 unwind label %43

21:                                               ; preds = %19
  %22 = icmp ne i32 %20, 0
  %23 = invoke noundef zeroext i1 @_ZN7testing8internal14ShouldUseColorEb(i1 noundef zeroext %22)
          to label %24 unwind label %43

24:                                               ; preds = %21
  %25 = zext i1 %23 to i8
  store i8 %25, ptr @_ZZN7testing8internalL13ColoredPrintfENS0_10GTestColorEPKczE13in_color_mode, align 1, !tbaa !13
  %26 = call ptr @llvm.invariant.start.p0(i64 1, ptr @_ZZN7testing8internalL13ColoredPrintfENS0_10GTestColorEPKczE13in_color_mode)
  call void @__cxa_guard_release(ptr @_ZGVZN7testing8internalL13ColoredPrintfENS0_10GTestColorEPKczE13in_color_mode) #3
  br label %27

27:                                               ; preds = %24, %13, %2
  call void @llvm.lifetime.start.p0(i64 1, ptr %8) #3
  %28 = load i8, ptr @_ZZN7testing8internalL13ColoredPrintfENS0_10GTestColorEPKczE13in_color_mode, align 1, !tbaa !13, !range !17, !noundef !18
  %29 = trunc i8 %28 to i1
  br i1 %29, label %30, label %33

30:                                               ; preds = %27
  %31 = load i32, ptr %3, align 4, !tbaa !424
  %32 = icmp ne i32 %31, 0
  br label %33

33:                                               ; preds = %30, %27
  %34 = phi i1 [ false, %27 ], [ %32, %30 ]
  %35 = zext i1 %34 to i8
  store i8 %35, ptr %8, align 1, !tbaa !13
  %36 = load i8, ptr %8, align 1, !tbaa !13, !range !17, !noundef !18
  %37 = trunc i8 %36 to i1
  br i1 %37, label %47, label %38

38:                                               ; preds = %33
  %39 = load ptr, ptr %4, align 8, !tbaa !15
  %40 = getelementptr inbounds [1 x %struct.__va_list_tag], ptr %5, i64 0, i64 0
  %41 = call i32 @vprintf(ptr noundef %39, ptr noundef %40) #3
  %42 = getelementptr inbounds [1 x %struct.__va_list_tag], ptr %5, i64 0, i64 0
  call void @llvm.va_end.p0(ptr %42)
  store i32 1, ptr %9, align 4
  br label %56

43:                                               ; preds = %21, %19, %16
  %44 = landingpad { ptr, i32 }
          cleanup
  %45 = extractvalue { ptr, i32 } %44, 0
  store ptr %45, ptr %6, align 8
  %46 = extractvalue { ptr, i32 } %44, 1
  store i32 %46, ptr %7, align 4
  call void @__cxa_guard_abort(ptr @_ZGVZN7testing8internalL13ColoredPrintfENS0_10GTestColorEPKczE13in_color_mode) #3
  call void @llvm.lifetime.end.p0(i64 24, ptr %5) #3
  br label %59

47:                                               ; preds = %33
  %48 = load i32, ptr %3, align 4, !tbaa !424
  %49 = call noundef ptr @_ZN7testing8internalL16GetAnsiColorCodeENS0_10GTestColorE(i32 noundef %48)
  %50 = call i32 (ptr, ...) @printf(ptr noundef @.str.405, ptr noundef %49)
  %51 = load ptr, ptr %4, align 8, !tbaa !15
  %52 = getelementptr inbounds [1 x %struct.__va_list_tag], ptr %5, i64 0, i64 0
  %53 = call i32 @vprintf(ptr noundef %51, ptr noundef %52) #3
  %54 = call i32 (ptr, ...) @printf(ptr noundef @.str.406)
  %55 = getelementptr inbounds [1 x %struct.__va_list_tag], ptr %5, i64 0, i64 0
  call void @llvm.va_end.p0(ptr %55)
  store i32 0, ptr %9, align 4
  br label %56

56:                                               ; preds = %47, %38
  call void @llvm.lifetime.end.p0(i64 1, ptr %8) #3
  call void @llvm.lifetime.end.p0(i64 24, ptr %5) #3
  %57 = load i32, ptr %9, align 4
  switch i32 %57, label %64 [
    i32 0, label %58
    i32 1, label %58
  ]

58:                                               ; preds = %56, %56
  ret void

59:                                               ; preds = %43
  %60 = load ptr, ptr %6, align 8
  %61 = load i32, ptr %7, align 4
  %62 = insertvalue { ptr, i32 } poison, ptr %60, 0
  %63 = insertvalue { ptr, i32 } %62, i32 %61, 1
  resume { ptr, i32 } %63

64:                                               ; preds = %56
  unreachable
}