; Function Attrs: mustprogress nounwind uwtable
define internal void @_ZN7testing8internalL13ColoredPrintfENS0_10GTestColorEPKcz(i32 noundef range(i32 0, 4) %0, ptr noundef readonly captures(none) %1, ...) unnamed_addr #5 personality ptr @__gxx_personality_v0 {
  %3 = alloca [1 x %struct.__va_list_tag], align 16
  call void @llvm.lifetime.start.p0(i64 24, ptr nonnull %3) #56
  call void @llvm.va_start.p0(ptr nonnull %3)
  %4 = load atomic i8, ptr @_ZGVZN7testing8internalL13ColoredPrintfENS0_10GTestColorEPKczE13in_color_mode acquire, align 8
  %5 = icmp eq i8 %4, 0
  br i1 %5, label %6, label %16, !prof !41

6:                                                ; preds = %2
  %7 = call i32 @__cxa_guard_acquire(ptr nonnull @_ZGVZN7testing8internalL13ColoredPrintfENS0_10GTestColorEPKczE13in_color_mode) #56
  %.not = icmp eq i32 %7, 0
  br i1 %.not, label %16, label %8

8:                                                ; preds = %6
  %9 = load ptr, ptr @stdout, align 8, !tbaa !28
  %10 = call noundef i32 @fileno(ptr noundef %9) #56
  %11 = call noundef i32 @isatty(i32 noundef %10) #56
  %12 = icmp ne i32 %11, 0
  %13 = call noundef zeroext i1 @_ZN7testing8internal14ShouldUseColorEb(i1 noundef zeroext %12)
  %14 = zext i1 %13 to i8
  store i8 %14, ptr @_ZZN7testing8internalL13ColoredPrintfENS0_10GTestColorEPKczE13in_color_mode, align 1, !tbaa !67
  %15 = call ptr @llvm.invariant.start.p0(i64 1, ptr nonnull @_ZZN7testing8internalL13ColoredPrintfENS0_10GTestColorEPKczE13in_color_mode)
  call void @__cxa_guard_release(ptr nonnull @_ZGVZN7testing8internalL13ColoredPrintfENS0_10GTestColorEPKczE13in_color_mode) #56
  br label %16

16:                                               ; preds = %8, %6, %2
  %17 = load i8, ptr @_ZZN7testing8internalL13ColoredPrintfENS0_10GTestColorEPKczE13in_color_mode, align 1, !tbaa !67, !range !68, !noundef !69
  %18 = trunc nuw i8 %17 to i1
  %19 = icmp ne i32 %0, 0
  %20 = and i1 %19, %18
  br i1 %20, label %switch.lookup, label %21

21:                                               ; preds = %16
  %22 = load ptr, ptr @stdout, align 8, !tbaa !28, !noalias !666
  %23 = call i32 @vfprintf(ptr noundef %22, ptr noundef %1, ptr noundef nonnull %3) #56
  br label %29

switch.lookup:                                    ; preds = %16
  %switch.tableidx = add nsw i32 %0, -1
  %24 = sext i32 %switch.tableidx to i64
  %switch.gep = getelementptr inbounds [3 x ptr], ptr @switch.table._ZN7testing8internalL13ColoredPrintfENS0_10GTestColorEPKcz, i64 0, i64 %24
  %switch.load = load ptr, ptr %switch.gep, align 8
  %25 = call i32 (ptr, ...) @printf(ptr noundef nonnull dereferenceable(1) @.str.405, ptr noundef nonnull %switch.load)
  %26 = load ptr, ptr @stdout, align 8, !tbaa !28, !noalias !669
  %27 = call i32 @vfprintf(ptr noundef %26, ptr noundef %1, ptr noundef nonnull %3) #56
  %28 = call i32 (ptr, ...) @printf(ptr noundef nonnull dereferenceable(1) @.str.406)
  br label %29

29:                                               ; preds = %switch.lookup, %21
  call void @llvm.va_end.p0(ptr nonnull %3)
  call void @llvm.lifetime.end.p0(i64 24, ptr nonnull %3) #56
  ret void
}